; Function Attrs: mustprogress nounwind uwtable
define dso_local noundef zeroext i1 @_ZN5clang6Parser24ParseOpenACCSizeExprListEv(ptr noundef nonnull align 8 dereferenceable(2936) %0) local_unnamed_addr #1 align 2 {
  %2 = alloca [2 x i16], align 2
  %3 = alloca [2 x i16], align 2
  %4 = tail call noundef zeroext i1 @_ZN5clang6Parser20ParseOpenACCSizeExprEv(ptr noundef nonnull align 8 dereferenceable(2936) %0)
  br i1 %4, label %6, label %.preheader

.preheader:                                       ; preds = %1
  %5 = getelementptr inbounds i8, ptr %0, i64 32
  br label %9

6:                                                ; preds = %1
  call void @llvm.lifetime.start.p0(i64 4, ptr nonnull %3)
  store i16 23, ptr %3, align 2
  %7 = getelementptr inbounds i8, ptr %3, i64 2
  store i16 446, ptr %7, align 2
  %8 = call noundef zeroext i1 @_ZN5clang6Parser9SkipUntilEN4llvm8ArrayRefINS_3tok9TokenKindEEENS0_14SkipUntilFlagsE(ptr noundef nonnull align 8 dereferenceable(2936) %0, ptr nonnull %3, i64 2, i32 noundef 2) #13
  call void @llvm.lifetime.end.p0(i64 4, ptr nonnull %3)
  br label %.loopexit

9:                                                ; preds = %.preheader, %11
  %10 = load i16, ptr %5, align 8
  switch i16 %10, label %11 [
    i16 446, label %.loopexit
    i16 23, label %.loopexit
  ]

11:                                               ; preds = %9
  %12 = tail call noundef zeroext i1 @_ZN5clang6Parser16ExpectAndConsumeENS_3tok9TokenKindEjN4llvm9StringRefE(ptr noundef nonnull align 8 dereferenceable(2936) %0, i16 noundef zeroext 66, i32 noundef 15, ptr nonnull @.str, i64 0) #13
  %13 = tail call noundef zeroext i1 @_ZN5clang6Parser20ParseOpenACCSizeExprEv(ptr noundef nonnull align 8 dereferenceable(2936) %0)
  br i1 %13, label %14, label %9, !llvm.loop !9

14:                                               ; preds = %11
  call void @llvm.lifetime.start.p0(i64 4, ptr nonnull %2)
  store i16 23, ptr %2, align 2
  %15 = getelementptr inbounds i8, ptr %2, i64 2
  store i16 446, ptr %15, align 2
  %16 = call noundef zeroext i1 @_ZN5clang6Parser9SkipUntilEN4llvm8ArrayRefINS_3tok9TokenKindEEENS0_14SkipUntilFlagsE(ptr noundef nonnull align 8 dereferenceable(2936) %0, ptr nonnull %2, i64 2, i32 noundef 2) #13
  call void @llvm.lifetime.end.p0(i64 4, ptr nonnull %2)
  br label %.loopexit

.loopexit:                                        ; preds = %9, %9, %14, %6
  ret i1 false
}